Certificate:
    Data:
        Version: 3 (0x2)
        Serial Number: 1 (0x1)
    Signature Algorithm: md5WithRSAEncryption
        Issuer: CN=My CA, ST=Beijing, C=CN/emailAddress=lihuorong010@gmail.com, O=Root Certification Authority
        Validity
            Not Before: Jun  7 14:21:50 2014 GMT
            Not After : Jun  7 14:21:50 2015 GMT
        Subject: CN=Tyler lee, ST=Beijing, C=CN/emailAddress=lihuorong010@gmail.com, O=Internet Widgits Pty Ltd
        Subject Public Key Info:
            Public Key Algorithm: rsaEncryption
                Public-Key: (1024 bit)
                Modulus:
                    00:c2:f7:3f:2f:c9:d5:ba:a9:26:92:12:69:e2:ee:
                    ba:5b:c9:1c:28:bf:d8:7f:50:a5:5b:62:e6:6a:e9:
                    60:c8:67:d4:1c:85:c4:35:de:1a:33:89:29:2e:22:
                    97:52:c1:f9:dc:f1:42:28:c6:8f:8f:b3:78:6d:40:
                    9f:96:5f:d1:34:6c:4a:97:77:d8:06:23:e0:24:a0:
                    9a:cf:d2:8f:bb:5a:60:7c:d0:92:26:60:50:78:90:
                    7f:6c:42:81:d2:d3:5b:f4:b1:95:40:be:74:be:1e:
                    78:6e:dc:1a:1c:4b:b7:c9:a3:29:ae:ce:e8:a3:fe:
                    4d:72:f2:7b:7f:ca:ac:7d:b9
                Exponent: 65537 (0x10001)
        X509v3 extensions:
            X509v3 Basic Constraints: 
                CA:FALSE
    Signature Algorithm: md5WithRSAEncryption
         65:4f:de:cd:74:ce:36:92:bc:5f:05:b8:8b:df:5f:2f:62:79:
         9c:1c:50:33:e8:03:ea:dd:a5:1a:bd:4c:64:42:25:9b:91:47:
         a2:35:58:ed:d8:3e:c5:25:19:86:27:f9:ba:38:b1:76:47:eb:
         01:09:d2:82:33:8d:37:41:38:c9:45:52:57:92:6d:de:0b:3c:
         b0:5e:55:15:25:b2:6a:a2:19:d0:8f:a2:98:ea:67:4c:c7:fb:
         7c:39:4b:a9:e0:35:c3:65:15:3f:d0:3b:b0:34:36:9e:b5:9c:
         ff:cc:27:9d:bd:fa:00:e9:0b:5f:4f:7a:26:2e:b8:4f:4c:5c:
         84:cb:f5:f0:0e:a1:ba:89:70:ab:0b:d5:b2:c4:57:82:a0:76:
         c6:d5:94:51:44:59:93:36:c3:23:07:22:6a:5e:9a:23:03:3e:
         90:fc:4d:6b:1b:f5:de:e8:f7:08:38:ab:b6:9d:58:57:dd:7c:
         68:6a:f9:9a:11:15:6b:9d:b5:4e:80:c9:a4:32:25:1d:65:6c:
         fa:be:7d:96:50:b4:73:9a:8e:c7:d5:e4:e0:05:aa:26:74:6f:
         cd:a2:cc:cc:5d:fb:ec:ca:e1:93:02:56:c0:2b:89:c9:e1:1c:
         6d:87:e8:54:42:cb:39:65:b0:76:bf:fc:3a:87:3c:e1:f7:12:
         c7:58:e9:86
-----BEGIN CERTIFICATE-----
MIIC/jCCAeagAwIBAgIBATANBgkqhkiG9w0BAQQFADB9MQ4wDAYDVQQDDAVNeSBD
QTEQMA4GA1UECAwHQmVpamluZzELMAkGA1UEBhMCQ04xJTAjBgkqhkiG9w0BCQEW
FmxpaHVvcm9uZzAxMEBnbWFpbC5jb20xJTAjBgNVBAoMHFJvb3QgQ2VydGlmaWNh
dGlvbiBBdXRob3JpdHkwHhcNMTQwNjA3MTQyMTUwWhcNMTUwNjA3MTQyMTUwWjB9
MRIwEAYDVQQDDAlUeWxlciBsZWUxEDAOBgNVBAgMB0JlaWppbmcxCzAJBgNVBAYT
AkNOMSUwIwYJKoZIhvcNAQkBFhZsaWh1b3JvbmcwMTBAZ21haWwuY29tMSEwHwYD
VQQKDBhJbnRlcm5ldCBXaWRnaXRzIFB0eSBMdGQwgZ8wDQYJKoZIhvcNAQEBBQAD
gY0AMIGJAoGBAML3Py/J1bqpJpISaeLuulvJHCi/2H9QpVti5mrpYMhn1ByFxDXe
GjOJKS4il1LB+dzxQijGj4+zeG1An5Zf0TRsSpd32AYj4CSgms/Sj7taYHzQkiZg
UHiQf2xCgdLTW/SxlUC+dL4eeG7cGhxLt8mjKa7O6KP+TXLye3/KrH25AgMBAAGj
DTALMAkGA1UdEwQCMAAwDQYJKoZIhvcNAQEEBQADggEBAGVP3s10zjaSvF8FuIvf
Xy9ieZwcUDPoA+rdpRq9TGRCJZuRR6I1WO3YPsUlGYYn+bo4sXZH6wEJ0oIzjTdB
OMlFUleSbd4LPLBeVRUlsmqiGdCPopjqZ0zH+3w5S6ngNcNlFT/QO7A0Np61nP/M
J529+gDpC19PeiYuuE9MXITL9fAOobqJcKsL1bLEV4KgdsbVlFFEWZM2wyMHImpe
miMDPpD8TWsb9d7o9wg4q7adWFfdfGhq+ZoRFWudtU6AyaQyJR1lbPq+fZZQtHOa
jsfV5OAFqiZ0b82izMxd++zK4ZMCVsAricnhHG2H6FRCyzllsHa//DqHPOH3EsdY
6YY=
-----END CERTIFICATE-----
